; Function Attrs: nofree norecurse nosync nounwind memory(read, inaccessiblemem: none) uwtable
define range(i32 0, 2) i32 @If_DsdManHasMarks(ptr noundef readonly captures(none) %0) local_unnamed_addr #10 {
  %2 = getelementptr i8, ptr %0, i64 44
  %.val = load i32, ptr %2, align 4, !tbaa !20
  %3 = icmp sgt i32 %.val, 0
  br i1 %3, label %.lr.ph, label %.critedge

.lr.ph:                                           ; preds = %1
  %4 = getelementptr i8, ptr %0, i64 48
  %.val7 = load ptr, ptr %4, align 8, !tbaa !23
  %wide.trip.count = zext nneg i32 %.val to i64
  br label %6

5:                                                ; preds = %6
  %indvars.iv.next = add nuw nsw i64 %indvars.iv, 1
  %exitcond.not = icmp eq i64 %indvars.iv.next, %wide.trip.count
  br i1 %exitcond.not, label %.critedge, label %6, !llvm.loop !105

6:                                                ; preds = %.lr.ph, %5
  %indvars.iv = phi i64 [ 0, %.lr.ph ], [ %indvars.iv.next, %5 ]
  %7 = getelementptr inbounds nuw ptr, ptr %.val7, i64 %indvars.iv
  %8 = load ptr, ptr %7, align 8, !tbaa !24
  %9 = getelementptr inbounds nuw i8, ptr %8, i64 4
  %10 = load i32, ptr %9, align 4
  %11 = and i32 %10, 256
  %.not = icmp eq i32 %11, 0
  br i1 %.not, label %5, label %.critedge

.critedge:                                        ; preds = %6, %5, %1
  %.06 = phi i32 [ 0, %1 ], [ 0, %5 ], [ 1, %6 ]
  ret i32 %.06
}